target datalayout = "e-m:e-p270:32:32-p271:32:32-p272:64:64-i64:64-i128:128-f80:128-n8:16:32:64-S128"
target triple = "x86_64-pc-linux-gnu"

%struct.ImVec2 = type { float, float }
%struct.ImTriangulator = type { i32, ptr, %struct.ImTriangulatorNodeSpan, %struct.ImTriangulatorNodeSpan }
%struct.ImTriangulatorNodeSpan = type <{ ptr, i32, [4 x i8] }>
%struct.ImTriangulatorNode = type { i32, i32, %struct.ImVec2, ptr, ptr }

; Function Attrs: mustprogress nounwind uwtable
define dso_local void @_ZN14ImTriangulator10BuildNodesEPK6ImVec2i(ptr noundef nonnull align 8 dereferenceable(48) %0, ptr noundef %1, i32 noundef %2) #3 align 2 {
  %4 = alloca ptr, align 8
  %5 = alloca ptr, align 8
  %6 = alloca i32, align 4
  %7 = alloca i32, align 4
  store ptr %0, ptr %4, align 8, !tbaa !200
  store ptr %1, ptr %5, align 8, !tbaa !33
  store i32 %2, ptr %6, align 4, !tbaa !21
  %8 = load ptr, ptr %4, align 8
  call void @llvm.lifetime.start.p0(i64 4, ptr %7) #17
  store i32 0, ptr %7, align 4, !tbaa !21
  br label %9

9:                                                ; preds = %62, %3
  %10 = load i32, ptr %7, align 4, !tbaa !21
  %11 = load i32, ptr %6, align 4, !tbaa !21
  %12 = icmp slt i32 %10, %11
  br i1 %12, label %14, label %13

13:                                               ; preds = %9
  call void @llvm.lifetime.end.p0(i64 4, ptr %7) #17
  br label %65

14:                                               ; preds = %9
  %15 = getelementptr inbounds nuw %struct.ImTriangulator, ptr %8, i32 0, i32 1
  %16 = load ptr, ptr %15, align 8, !tbaa !207
  %17 = load i32, ptr %7, align 4, !tbaa !21
  %18 = sext i32 %17 to i64
  %19 = getelementptr inbounds %struct.ImTriangulatorNode, ptr %16, i64 %18
  %20 = getelementptr inbounds nuw %struct.ImTriangulatorNode, ptr %19, i32 0, i32 0
  store i32 0, ptr %20, align 8, !tbaa !210
  %21 = load i32, ptr %7, align 4, !tbaa !21
  %22 = getelementptr inbounds nuw %struct.ImTriangulator, ptr %8, i32 0, i32 1
  %23 = load ptr, ptr %22, align 8, !tbaa !207
  %24 = load i32, ptr %7, align 4, !tbaa !21
  %25 = sext i32 %24 to i64
  %26 = getelementptr inbounds %struct.ImTriangulatorNode, ptr %23, i64 %25
  %27 = getelementptr inbounds nuw %struct.ImTriangulatorNode, ptr %26, i32 0, i32 1
  store i32 %21, ptr %27, align 4, !tbaa !213
  %28 = load ptr, ptr %5, align 8, !tbaa !33
  %29 = load i32, ptr %7, align 4, !tbaa !21
  %30 = sext i32 %29 to i64
  %31 = getelementptr inbounds %struct.ImVec2, ptr %28, i64 %30
  %32 = getelementptr inbounds nuw %struct.ImTriangulator, ptr %8, i32 0, i32 1
  %33 = load ptr, ptr %32, align 8, !tbaa !207
  %34 = load i32, ptr %7, align 4, !tbaa !21
  %35 = sext i32 %34 to i64
  %36 = getelementptr inbounds %struct.ImTriangulatorNode, ptr %33, i64 %35
  %37 = getelementptr inbounds nuw %struct.ImTriangulatorNode, ptr %36, i32 0, i32 2
  call void @llvm.memcpy.p0.p0.i64(ptr align 8 %37, ptr align 4 %31, i64 8, i1 false), !tbaa.struct !23
  %38 = getelementptr inbounds nuw %struct.ImTriangulator, ptr %8, i32 0, i32 1
  %39 = load ptr, ptr %38, align 8, !tbaa !207
  %40 = load i32, ptr %7, align 4, !tbaa !21
  %41 = sext i32 %40 to i64
  %42 = getelementptr inbounds %struct.ImTriangulatorNode, ptr %39, i64 %41
  %43 = getelementptr inbounds %struct.ImTriangulatorNode, ptr %42, i64 1
  %44 = getelementptr inbounds nuw %struct.ImTriangulator, ptr %8, i32 0, i32 1
  %45 = load ptr, ptr %44, align 8, !tbaa !207
  %46 = load i32, ptr %7, align 4, !tbaa !21
  %47 = sext i32 %46 to i64
  %48 = getelementptr inbounds %struct.ImTriangulatorNode, ptr %45, i64 %47
  %49 = getelementptr inbounds nuw %struct.ImTriangulatorNode, ptr %48, i32 0, i32 3
  store ptr %43, ptr %49, align 8, !tbaa !214
  %50 = getelementptr inbounds nuw %struct.ImTriangulator, ptr %8, i32 0, i32 1
  %51 = load ptr, ptr %50, align 8, !tbaa !207
  %52 = load i32, ptr %7, align 4, !tbaa !21
  %53 = sext i32 %52 to i64
  %54 = getelementptr inbounds %struct.ImTriangulatorNode, ptr %51, i64 %53
  %55 = getelementptr inbounds %struct.ImTriangulatorNode, ptr %54, i64 -1
  %56 = getelementptr inbounds nuw %struct.ImTriangulator, ptr %8, i32 0, i32 1
  %57 = load ptr, ptr %56, align 8, !tbaa !207
  %58 = load i32, ptr %7, align 4, !tbaa !21
  %59 = sext i32 %58 to i64
  %60 = getelementptr inbounds %struct.ImTriangulatorNode, ptr %57, i64 %59
  %61 = getelementptr inbounds nuw %struct.ImTriangulatorNode, ptr %60, i32 0, i32 4
  store ptr %55, ptr %61, align 8, !tbaa !215
  br label %62

62:                                               ; preds = %14
  %63 = load i32, ptr %7, align 4, !tbaa !21
  %64 = add nsw i32 %63, 1
  store i32 %64, ptr %7, align 4, !tbaa !21
  br label %9, !llvm.loop !216

65:                                               ; preds = %13
  %66 = getelementptr inbounds nuw %struct.ImTriangulator, ptr %8, i32 0, i32 1
  %67 = load ptr, ptr %66, align 8, !tbaa !207
  %68 = load i32, ptr %6, align 4, !tbaa !21
  %69 = sext i32 %68 to i64
  %70 = getelementptr inbounds %struct.ImTriangulatorNode, ptr %67, i64 %69
  %71 = getelementptr inbounds %struct.ImTriangulatorNode, ptr %70, i64 -1
  %72 = getelementptr inbounds nuw %struct.ImTriangulator, ptr %8, i32 0, i32 1
  %73 = load ptr, ptr %72, align 8, !tbaa !207
  %74 = getelementptr inbounds %struct.ImTriangulatorNode, ptr %73, i64 0
  %75 = getelementptr inbounds nuw %struct.ImTriangulatorNode, ptr %74, i32 0, i32 4
  store ptr %71, ptr %75, align 8, !tbaa !215
  %76 = getelementptr inbounds nuw %struct.ImTriangulator, ptr %8, i32 0, i32 1
  %77 = load ptr, ptr %76, align 8, !tbaa !207
  %78 = getelementptr inbounds nuw %struct.ImTriangulator, ptr %8, i32 0, i32 1
  %79 = load ptr, ptr %78, align 8, !tbaa !207
  %80 = load i32, ptr %6, align 4, !tbaa !21
  %81 = sub nsw i32 %80, 1
  %82 = sext i32 %81 to i64
  %83 = getelementptr inbounds %struct.ImTriangulatorNode, ptr %79, i64 %82
  %84 = getelementptr inbounds nuw %struct.ImTriangulatorNode, ptr %83, i32 0, i32 3
  store ptr %77, ptr %84, align 8, !tbaa !214
  ret void
}