; Function Attrs: mustprogress nofree norecurse nosync nounwind memory(write, argmem: readwrite, inaccessiblemem: none) uwtable
define dso_local void @_ZN14ImTriangulator10BuildNodesEPK6ImVec2i(ptr noundef nonnull readonly align 8 captures(none) dereferenceable(48) %0, ptr noundef readonly captures(none) %1, i32 noundef %2) local_unnamed_addr #19 align 2 {
  %4 = icmp sgt i32 %2, 0
  %5 = getelementptr inbounds nuw i8, ptr %0, i64 8
  br i1 %4, label %.lr.ph, label %.._crit_edge_crit_edge

.._crit_edge_crit_edge:                           ; preds = %3
  %.pre18 = load ptr, ptr %5, align 8, !tbaa !174
  br label %._crit_edge

.lr.ph:                                           ; preds = %3
  %wide.trip.count = zext nneg i32 %2 to i64
  %.pre = load ptr, ptr %5, align 8, !tbaa !174
  br label %12

._crit_edge:                                      ; preds = %12, %.._crit_edge_crit_edge
  %6 = phi ptr [ %.pre18, %.._crit_edge_crit_edge ], [ %20, %12 ]
  %7 = sext i32 %2 to i64
  %8 = getelementptr %struct.ImTriangulatorNode, ptr %6, i64 %7
  %9 = getelementptr inbounds i8, ptr %8, i64 -32
  %10 = getelementptr inbounds nuw i8, ptr %6, i64 24
  store ptr %9, ptr %10, align 8, !tbaa !177
  %11 = getelementptr i8, ptr %8, i64 -16
  store ptr %6, ptr %11, align 8, !tbaa !180
  ret void

12:                                               ; preds = %.lr.ph, %12
  %13 = phi ptr [ %.pre, %.lr.ph ], [ %20, %12 ]
  %indvars.iv = phi i64 [ 0, %.lr.ph ], [ %indvars.iv.next, %12 ]
  %14 = getelementptr inbounds nuw %struct.ImTriangulatorNode, ptr %13, i64 %indvars.iv
  store i32 0, ptr %14, align 8, !tbaa !181
  %15 = getelementptr inbounds nuw %struct.ImTriangulatorNode, ptr %13, i64 %indvars.iv, i32 1
  %16 = trunc nuw nsw i64 %indvars.iv to i32
  store i32 %16, ptr %15, align 4, !tbaa !182
  %17 = getelementptr inbounds nuw %struct.ImVec2, ptr %1, i64 %indvars.iv
  %18 = getelementptr inbounds nuw %struct.ImTriangulatorNode, ptr %13, i64 %indvars.iv, i32 2
  %19 = load i64, ptr %17, align 4
  store i64 %19, ptr %18, align 8
  %20 = load ptr, ptr %5, align 8, !tbaa !174
  %21 = getelementptr inbounds nuw %struct.ImTriangulatorNode, ptr %20, i64 %indvars.iv
  %22 = getelementptr inbounds nuw i8, ptr %21, i64 32
  %23 = getelementptr inbounds nuw i8, ptr %21, i64 16
  store ptr %22, ptr %23, align 8, !tbaa !180
  %24 = getelementptr inbounds i8, ptr %21, i64 -32
  %25 = getelementptr inbounds nuw i8, ptr %21, i64 24
  store ptr %24, ptr %25, align 8, !tbaa !177
  %indvars.iv.next = add nuw nsw i64 %indvars.iv, 1
  %exitcond.not = icmp eq i64 %indvars.iv.next, %wide.trip.count
  br i1 %exitcond.not, label %._crit_edge, label %12, !llvm.loop !183
}